; Function Attrs: mustprogress nounwind uwtable
define internal fastcc void @"_ZSt13__adjust_heapIN9__gnu_cxx17__normal_iteratorIPPKN5vcpkg15CommandMetadataESt6vectorIS5_SaIS5_EEEElS5_NS0_5__ops15_Iter_comp_iterIZNS2_23print_full_command_listEvE3$_0EEEvT_T0_SG_T1_T2_"(ptr captures(none) %0, i64 noundef %1, i64 noundef %2, ptr noundef %3) unnamed_addr #8 {
  %5 = add nsw i64 %2, -1
  %6 = sdiv i64 %5, 2
  %7 = icmp slt i64 %1, %6
  br i1 %7, label %.lr.ph, label %._crit_edge

.lr.ph:                                           ; preds = %4, %.lr.ph
  %.034 = phi i64 [ %spec.select, %.lr.ph ], [ %1, %4 ]
  %8 = shl i64 %.034, 1
  %9 = add i64 %8, 2
  %10 = getelementptr inbounds ptr, ptr %0, i64 %9
  %11 = or disjoint i64 %8, 1
  %12 = getelementptr inbounds ptr, ptr %0, i64 %11
  %13 = load ptr, ptr %10, align 8, !tbaa !10
  %14 = load ptr, ptr %12, align 8, !tbaa !10
  %.val.i = load ptr, ptr %13, align 8, !tbaa !24
  %15 = getelementptr i8, ptr %13, i64 8
  %.val1.i = load i64, ptr %15, align 8, !tbaa !22
  %.val2.i = load ptr, ptr %14, align 8, !tbaa !24
  %16 = getelementptr i8, ptr %14, i64 8
  %.val3.i = load i64, ptr %16, align 8, !tbaa !22
  %17 = tail call noundef zeroext i1 @_ZN5vcpkgltENS_10StringViewES0_(ptr %.val.i, i64 %.val1.i, ptr %.val2.i, i64 %.val3.i) #16
  %spec.select = select i1 %17, i64 %11, i64 %9
  %18 = getelementptr inbounds ptr, ptr %0, i64 %spec.select
  %19 = load ptr, ptr %18, align 8, !tbaa !10
  %20 = getelementptr inbounds ptr, ptr %0, i64 %.034
  store ptr %19, ptr %20, align 8, !tbaa !10
  %21 = icmp slt i64 %spec.select, %6
  br i1 %21, label %.lr.ph, label %._crit_edge, !llvm.loop !39

._crit_edge:                                      ; preds = %.lr.ph, %4
  %.0.lcssa = phi i64 [ %1, %4 ], [ %spec.select, %.lr.ph ]
  %22 = and i64 %2, 1
  %23 = icmp eq i64 %22, 0
  br i1 %23, label %24, label %34

24:                                               ; preds = %._crit_edge
  %25 = add nsw i64 %2, -2
  %26 = ashr exact i64 %25, 1
  %27 = icmp eq i64 %.0.lcssa, %26
  br i1 %27, label %28, label %34

28:                                               ; preds = %24
  %29 = shl nsw i64 %.0.lcssa, 1
  %30 = or disjoint i64 %29, 1
  %31 = getelementptr inbounds ptr, ptr %0, i64 %30
  %32 = load ptr, ptr %31, align 8, !tbaa !10
  %33 = getelementptr inbounds ptr, ptr %0, i64 %.0.lcssa
  store ptr %32, ptr %33, align 8, !tbaa !10
  br label %34

34:                                               ; preds = %28, %24, %._crit_edge
  %.1 = phi i64 [ %30, %28 ], [ %.0.lcssa, %24 ], [ %.0.lcssa, %._crit_edge ]
  %35 = icmp sgt i64 %.1, %1
  br i1 %35, label %.lr.ph.i, label %"_ZSt11__push_heapIN9__gnu_cxx17__normal_iteratorIPPKN5vcpkg15CommandMetadataESt6vectorIS5_SaIS5_EEEElS5_NS0_5__ops14_Iter_comp_valIZNS2_23print_full_command_listEvE3$_0EEEvT_T0_SG_T1_RT2_.exit"

.lr.ph.i:                                         ; preds = %34
  %36 = getelementptr i8, ptr %3, i64 8
  br label %37

37:                                               ; preds = %42, %.lr.ph.i
  %.010.i = phi i64 [ %.1, %.lr.ph.i ], [ %.0911.i, %42 ]
  %.0911.in.i = add nsw i64 %.010.i, -1
  %.0911.i = sdiv i64 %.0911.in.i, 2
  %38 = getelementptr inbounds ptr, ptr %0, i64 %.0911.i
  %.val.val.i = load ptr, ptr %3, align 8, !tbaa !24
  %.val.val10.i = load i64, ptr %36, align 8, !tbaa !22
  %39 = load ptr, ptr %38, align 8, !tbaa !10
  %.val.i.i = load ptr, ptr %39, align 8, !tbaa !24
  %40 = getelementptr i8, ptr %39, i64 8
  %.val2.i.i = load i64, ptr %40, align 8, !tbaa !22
  %41 = tail call noundef zeroext i1 @_ZN5vcpkgltENS_10StringViewES0_(ptr %.val.i.i, i64 %.val2.i.i, ptr %.val.val.i, i64 %.val.val10.i) #16
  br i1 %41, label %42, label %"_ZSt11__push_heapIN9__gnu_cxx17__normal_iteratorIPPKN5vcpkg15CommandMetadataESt6vectorIS5_SaIS5_EEEElS5_NS0_5__ops14_Iter_comp_valIZNS2_23print_full_command_listEvE3$_0EEEvT_T0_SG_T1_RT2_.exit"

42:                                               ; preds = %37
  %43 = load ptr, ptr %38, align 8, !tbaa !10
  %44 = getelementptr inbounds ptr, ptr %0, i64 %.010.i
  store ptr %43, ptr %44, align 8, !tbaa !10
  %45 = icmp sgt i64 %.0911.i, %1
  br i1 %45, label %37, label %"_ZSt11__push_heapIN9__gnu_cxx17__normal_iteratorIPPKN5vcpkg15CommandMetadataESt6vectorIS5_SaIS5_EEEElS5_NS0_5__ops14_Iter_comp_valIZNS2_23print_full_command_listEvE3$_0EEEvT_T0_SG_T1_RT2_.exit", !llvm.loop !40

"_ZSt11__push_heapIN9__gnu_cxx17__normal_iteratorIPPKN5vcpkg15CommandMetadataESt6vectorIS5_SaIS5_EEEElS5_NS0_5__ops14_Iter_comp_valIZNS2_23print_full_command_listEvE3$_0EEEvT_T0_SG_T1_RT2_.exit": ; preds = %37, %42, %34
  %.0.lcssa.i = phi i64 [ %.1, %34 ], [ %.010.i, %37 ], [ %.0911.i, %42 ]
  %46 = getelementptr inbounds ptr, ptr %0, i64 %.0.lcssa.i
  store ptr %3, ptr %46, align 8, !tbaa !10
  ret void
}